; Function Attrs: mustprogress nounwind uwtable
define internal fastcc void @_ZL21log_circularity_errorP6SymbolP16PlaceholderEntry(ptr noundef %0, ptr noundef %1) unnamed_addr #0 {
  %3 = alloca %class.LogStream, align 8
  %4 = load volatile ptr, ptr getelementptr inbounds (i8, ptr @_ZN16LogTagSetMappingILN6LogTag4typeE16ELS1_74ELS1_116ELS1_0ELS1_0ELS1_0EE7_tagsetE, i64 56), align 8
  %.not = icmp eq ptr %4, null
  br i1 %.not, label %_ZN12ResourceMarkD2Ev.exit, label %5

5:                                                ; preds = %2
  %6 = tail call align 8 ptr @llvm.threadlocal.address.p0(ptr align 8 @_ZN6Thread12_thr_currentE)
  %7 = load ptr, ptr %6, align 8
  %8 = getelementptr inbounds i8, ptr %7, i64 800
  %9 = load ptr, ptr %8, align 8
  %10 = getelementptr inbounds i8, ptr %9, i64 24
  %11 = load ptr, ptr %10, align 8
  %12 = getelementptr inbounds i8, ptr %9, i64 32
  %13 = load ptr, ptr %12, align 8
  %14 = getelementptr inbounds i8, ptr %9, i64 40
  %15 = load ptr, ptr %14, align 8
  %16 = getelementptr inbounds i8, ptr %9, i64 8
  %17 = load i64, ptr %16, align 8
  call void @_ZN12outputStreamC2Eb(ptr noundef nonnull align 8 dereferenceable(56) %3, i1 noundef zeroext false) #14
  store ptr getelementptr inbounds inrange(-16, 40) (i8, ptr @_ZTV17LogStreamImplBase, i64 16), ptr %3, align 8
  %18 = getelementptr inbounds i8, ptr %3, i64 56
  call void @_ZN17LogStreamImplBase10LineBufferC1Ev(ptr noundef nonnull align 8 dereferenceable(88) %18) #14
  %19 = getelementptr inbounds i8, ptr %3, i64 144
  store i32 2, ptr %19, align 8
  %.sroa.21.0..sroa_idx.i.i = getelementptr inbounds i8, ptr %3, i64 152
  store ptr @_ZN16LogTagSetMappingILN6LogTag4typeE16ELS1_74ELS1_116ELS1_0ELS1_0ELS1_0EE7_tagsetE, ptr %.sroa.21.0..sroa_idx.i.i, align 8
  store ptr getelementptr inbounds inrange(-16, 40) (i8, ptr @_ZTV9LogStream, i64 16), ptr %3, align 8
  %20 = call noundef ptr @_ZNK6Symbol11as_C_stringEv(ptr noundef nonnull align 4 dereferenceable(8) %0) #14
  call void (ptr, ptr, ...) @_ZN12outputStream5printEPKcz(ptr noundef nonnull align 8 dereferenceable(56) %3, ptr noundef nonnull @.str.46, ptr noundef %20) #14
  call void @_ZNK16PlaceholderEntry8print_onEP12outputStream(ptr noundef nonnull align 8 dereferenceable(48) %1, ptr noundef nonnull %3) #14
  call void @_ZN12outputStream2crEv(ptr noundef nonnull align 8 dereferenceable(56) %3) #14
  call void @_ZN13LogStreamImplI15LogTargetHandleED2Ev(ptr noundef nonnull align 8 dereferenceable(160) %3) #14
  %21 = load ptr, ptr %11, align 8
  %.not.i.i.i.i = icmp eq ptr %21, null
  br i1 %.not.i.i.i.i, label %23, label %22

22:                                               ; preds = %5
  call void @_ZN5Arena17set_size_in_bytesEm(ptr noundef nonnull align 8 dereferenceable(48) %9, i64 noundef %17) #14
  call void @_ZN5Chunk9next_chopEPS_(ptr noundef nonnull %11) #14
  br label %23

23:                                               ; preds = %22, %5
  %24 = load ptr, ptr %12, align 8
  %.not8.i.i.i.i = icmp eq ptr %24, %13
  br i1 %.not8.i.i.i.i, label %_ZN12ResourceMarkD2Ev.exit, label %25

25:                                               ; preds = %23
  store ptr %11, ptr %10, align 8
  store ptr %13, ptr %12, align 8
  store ptr %15, ptr %14, align 8
  br label %_ZN12ResourceMarkD2Ev.exit

_ZN12ResourceMarkD2Ev.exit:                       ; preds = %25, %23, %2
  ret void
}